; Function Attrs: mustprogress nounwind uwtable
define dso_local noundef ptr @_ZNK4llvm16MachObjectWriter7getAtomERKNS_8MCSymbolE(ptr nocapture noundef nonnull readnone align 8 dereferenceable(2032) %0, ptr noundef nonnull align 8 dereferenceable(32) %1) local_unnamed_addr #0 align 2 {
  %3 = getelementptr inbounds i8, ptr %1, i64 8
  %.val = load i64, ptr %3, align 8
  %4 = and i64 %.val, 2050
  %.0.i.not = icmp eq i64 %4, 2
  br i1 %.0.i.not, label %5, label %_ZNK4llvm8MCSymbol11isInSectionEv.exit.thread

5:                                                ; preds = %2
  %6 = load ptr, ptr %1, align 8
  %.not.i.i.i.i = icmp eq ptr %6, null
  br i1 %.not.i.i.i.i, label %7, label %_ZNK4llvm8MCSymbol11isInSectionEv.exit

7:                                                ; preds = %5
  %8 = and i64 %.val, 28800
  %or.cond.not.i.i.i.i = icmp eq i64 %8, 8192
  br i1 %or.cond.not.i.i.i.i, label %_ZNK4llvm8MCSymbol9isDefinedEv.exit.i, label %_ZNK4llvm8MCSymbol11isInSectionEv.exit.thread

_ZNK4llvm8MCSymbol9isDefinedEv.exit.i:            ; preds = %7
  %9 = or i64 %.val, 8
  store i64 %9, ptr %3, align 8
  %10 = getelementptr inbounds nuw i8, ptr %1, i64 24
  %11 = load ptr, ptr %10, align 8
  %12 = tail call noundef ptr @_ZNK4llvm6MCExpr22findAssociatedFragmentEv(ptr noundef nonnull align 8 dereferenceable(16) %11) #19
  store ptr %12, ptr %1, align 8
  %.not.i = icmp eq ptr %12, null
  br i1 %.not.i, label %_ZNK4llvm8MCSymbol11isInSectionEv.exit.thread, label %_ZNK4llvm8MCSymbol11isInSectionEv.exit

_ZNK4llvm8MCSymbol11isInSectionEv.exit:           ; preds = %5, %_ZNK4llvm8MCSymbol9isDefinedEv.exit.i
  %13 = phi ptr [ %12, %_ZNK4llvm8MCSymbol9isDefinedEv.exit.i ], [ %6, %5 ]
  %14 = load ptr, ptr @_ZN4llvm8MCSymbol22AbsolutePseudoFragmentE, align 8
  %.not = icmp eq ptr %13, %14
  br i1 %.not, label %_ZNK4llvm8MCSymbol11isInSectionEv.exit.thread, label %_ZNK4llvm8MCSymbol11getFragmentEb.exit

_ZNK4llvm8MCSymbol11getFragmentEb.exit:           ; preds = %_ZNK4llvm8MCSymbol11isInSectionEv.exit
  %.phi.trans.insert = getelementptr inbounds nuw i8, ptr %13, i64 8
  %.pre = load ptr, ptr %.phi.trans.insert, align 8
  %15 = tail call noundef zeroext i1 @_ZN4llvm15MCAsmInfoDarwin28isSectionAtomizableBySymbolsERKNS_9MCSectionE(ptr noundef nonnull align 8 dereferenceable(148) %.pre) #19
  br i1 %15, label %16, label %_ZNK4llvm8MCSymbol11isInSectionEv.exit.thread

16:                                               ; preds = %_ZNK4llvm8MCSymbol11getFragmentEb.exit
  %17 = load ptr, ptr %1, align 8
  %.not.i8 = icmp eq ptr %17, null
  br i1 %.not.i8, label %18, label %_ZNK4llvm8MCSymbol11getFragmentEb.exit12

18:                                               ; preds = %16
  %19 = load i64, ptr %3, align 8
  %20 = and i64 %19, 28800
  %or.cond.not.i10 = icmp eq i64 %20, 8192
  tail call void @llvm.assume(i1 %or.cond.not.i10)
  %21 = or i64 %19, 8
  store i64 %21, ptr %3, align 8
  %22 = getelementptr inbounds nuw i8, ptr %1, i64 24
  %23 = load ptr, ptr %22, align 8
  %24 = tail call noundef ptr @_ZNK4llvm6MCExpr22findAssociatedFragmentEv(ptr noundef nonnull align 8 dereferenceable(16) %23) #19
  store ptr %24, ptr %1, align 8
  br label %_ZNK4llvm8MCSymbol11getFragmentEb.exit12

_ZNK4llvm8MCSymbol11getFragmentEb.exit12:         ; preds = %16, %18
  %.0.i9 = phi ptr [ %24, %18 ], [ %17, %16 ]
  %25 = tail call noundef ptr @_ZNK4llvm10MCFragment7getAtomEv(ptr noundef nonnull align 8 dereferenceable(30) %.0.i9) #19
  br label %_ZNK4llvm8MCSymbol11isInSectionEv.exit.thread

_ZNK4llvm8MCSymbol11isInSectionEv.exit.thread:    ; preds = %7, %_ZNK4llvm8MCSymbol9isDefinedEv.exit.i, %_ZNK4llvm8MCSymbol11getFragmentEb.exit, %_ZNK4llvm8MCSymbol11isInSectionEv.exit, %2, %_ZNK4llvm8MCSymbol11getFragmentEb.exit12
  %.0 = phi ptr [ %25, %_ZNK4llvm8MCSymbol11getFragmentEb.exit12 ], [ %1, %2 ], [ null, %_ZNK4llvm8MCSymbol11isInSectionEv.exit ], [ null, %_ZNK4llvm8MCSymbol11getFragmentEb.exit ], [ null, %_ZNK4llvm8MCSymbol9isDefinedEv.exit.i ], [ null, %7 ]
  ret ptr %.0
}